target datalayout = "e-m:e-p270:32:32-p271:32:32-p272:64:64-i64:64-i128:128-f80:128-n8:16:32:64-S128"
target triple = "x86_64-unknown-linux-gnu"

%"class.std::set.0" = type { %"class.std::_Rb_tree.1" }
%"class.std::_Rb_tree.1" = type { %"struct.std::_Rb_tree<QuantLib::Observer *, QuantLib::Observer *, std::_Identity<QuantLib::Observer *>, std::less<QuantLib::Observer *>>::_Rb_tree_impl" }
%"struct.std::_Rb_tree<QuantLib::Observer *, QuantLib::Observer *, std::_Identity<QuantLib::Observer *>, std::less<QuantLib::Observer *>>::_Rb_tree_impl" = type { [8 x i8], %"struct.std::_Rb_tree_header" }
%"struct.std::_Rb_tree_header" = type { %"struct.std::_Rb_tree_node_base", i64 }
%"struct.std::_Rb_tree_node_base" = type { i32, ptr, ptr, ptr }
%"class.std::set" = type { %"class.std::_Rb_tree" }
%"class.std::_Rb_tree" = type { %"struct.std::_Rb_tree<boost::shared_ptr<QuantLib::Observable>, boost::shared_ptr<QuantLib::Observable>, std::_Identity<boost::shared_ptr<QuantLib::Observable>>, std::less<boost::shared_ptr<QuantLib::Observable>>>::_Rb_tree_impl" }
%"struct.std::_Rb_tree<boost::shared_ptr<QuantLib::Observable>, boost::shared_ptr<QuantLib::Observable>, std::_Identity<boost::shared_ptr<QuantLib::Observable>>, std::less<boost::shared_ptr<QuantLib::Observable>>>::_Rb_tree_impl" = type { [8 x i8], %"struct.std::_Rb_tree_header" }
%"class.QuantLib::Observable" = type { ptr, %"class.std::set.0" }
%"class.QuantLib::Observer" = type { ptr, %"class.std::set" }
%"class.std::vector.35" = type { %"struct.std::_Vector_base.36" }
%"struct.std::_Vector_base.36" = type { %"struct.std::_Vector_base<double, std::allocator<double>>::_Vector_impl" }
%"struct.std::_Vector_base<double, std::allocator<double>>::_Vector_impl" = type { %"struct.std::_Vector_base<double, std::allocator<double>>::_Vector_impl_data" }
%"struct.std::_Vector_base<double, std::allocator<double>>::_Vector_impl_data" = type { ptr, ptr, ptr }
%"class.QuantLib::RangeAccrualPricer" = type { %"class.QuantLib::FloatingRateCouponPricer.base", ptr, double, double, double, %"class.std::vector.35", %"class.std::vector.35", %"class.std::vector.35", i64, double, double, double, double, double, double, %"class.QuantLib::Observer", %"class.QuantLib::Observable" }
%"class.QuantLib::FloatingRateCouponPricer.base" = type { ptr }

; Function Attrs: mustprogress nounwind uwtable
define noundef double @_ZNK8QuantLib23RangeAccrualPricerByBgm6lambdaEddd(ptr noundef nonnull align 8 dereferenceable(224) %this, double noundef %U, double noundef %lambdaS, double noundef %lambdaT) #1 align 2 {
entry:
  %this.addr = alloca ptr, align 8
  %U.addr = alloca double, align 8
  %lambdaS.addr = alloca double, align 8
  %lambdaT.addr = alloca double, align 8
  %result = alloca double, align 8
  %p = alloca double, align 8
  %q = alloca double, align 8
  store ptr %this, ptr %this.addr, align 8, !tbaa !3
  store double %U, ptr %U.addr, align 8, !tbaa !31
  store double %lambdaS, ptr %lambdaS.addr, align 8, !tbaa !31
  store double %lambdaT, ptr %lambdaT.addr, align 8, !tbaa !31
  %this1 = load ptr, ptr %this.addr, align 8
  call void @llvm.lifetime.start.p0(i64 8, ptr %result) #18
  call void @llvm.lifetime.start.p0(i64 8, ptr %p) #18
  %0 = load double, ptr %U.addr, align 8, !tbaa !31
  %startTime_ = getelementptr inbounds nuw %"class.QuantLib::RangeAccrualPricer", ptr %this1, i32 0, i32 2
  %1 = load double, ptr %startTime_, align 8, !tbaa !83
  %sub = fsub double %0, %1
  %accrualFactor_ = getelementptr inbounds nuw %"class.QuantLib::RangeAccrualPricer", ptr %this1, i32 0, i32 4
  %2 = load double, ptr %accrualFactor_, align 8, !tbaa !81
  %div = fdiv double %sub, %2
  store double %div, ptr %p, align 8, !tbaa !31
  call void @llvm.lifetime.start.p0(i64 8, ptr %q) #18
  %endTime_ = getelementptr inbounds nuw %"class.QuantLib::RangeAccrualPricer", ptr %this1, i32 0, i32 3
  %3 = load double, ptr %endTime_, align 8, !tbaa !84
  %4 = load double, ptr %U.addr, align 8, !tbaa !31
  %sub2 = fsub double %3, %4
  %accrualFactor_3 = getelementptr inbounds nuw %"class.QuantLib::RangeAccrualPricer", ptr %this1, i32 0, i32 4
  %5 = load double, ptr %accrualFactor_3, align 8, !tbaa !81
  %div4 = fdiv double %sub2, %5
  store double %div4, ptr %q, align 8, !tbaa !31
  %startTime_5 = getelementptr inbounds nuw %"class.QuantLib::RangeAccrualPricer", ptr %this1, i32 0, i32 2
  %6 = load double, ptr %startTime_5, align 8, !tbaa !83
  %cmp = fcmp ogt double %6, 0.000000e+00
  br i1 %cmp, label %if.then, label %if.else

if.then:                                          ; preds = %entry
  %7 = load double, ptr %q, align 8, !tbaa !31
  %8 = load double, ptr %lambdaS.addr, align 8, !tbaa !31
  %9 = load double, ptr %p, align 8, !tbaa !31
  %10 = load double, ptr %lambdaT.addr, align 8, !tbaa !31
  %mul6 = fmul double %9, %10
  %11 = call double @llvm.fmuladd.f64(double %7, double %8, double %mul6)
  store double %11, ptr %result, align 8, !tbaa !31
  br label %if.end

if.else:                                          ; preds = %entry
  %12 = load double, ptr %lambdaT.addr, align 8, !tbaa !31
  store double %12, ptr %result, align 8, !tbaa !31
  br label %if.end

if.end:                                           ; preds = %if.else, %if.then
  %13 = load double, ptr %result, align 8, !tbaa !31
  call void @llvm.lifetime.end.p0(i64 8, ptr %q) #18
  call void @llvm.lifetime.end.p0(i64 8, ptr %p) #18
  call void @llvm.lifetime.end.p0(i64 8, ptr %result) #18
  ret double %13
}