; Function Attrs: mustprogress nofree norecurse nosync nounwind willreturn memory(argmem: read) uwtable
define noundef double @_ZNK8QuantLib23RangeAccrualPricerByBgm6lambdaEddd(ptr nocapture noundef nonnull readonly align 8 dereferenceable(224) %this, double noundef %U, double noundef %lambdaS, double noundef %lambdaT) local_unnamed_addr #17 align 2 {
entry:
  %startTime_ = getelementptr inbounds nuw i8, ptr %this, i64 16
  %0 = load double, ptr %startTime_, align 8, !tbaa !115
  %cmp = fcmp ogt double %0, 0.000000e+00
  br i1 %cmp, label %if.then, label %if.end

if.then:                                          ; preds = %entry
  %endTime_ = getelementptr inbounds nuw i8, ptr %this, i64 24
  %1 = load double, ptr %endTime_, align 8, !tbaa !116
  %sub2 = fsub double %1, %U
  %accrualFactor_ = getelementptr inbounds nuw i8, ptr %this, i64 32
  %2 = load double, ptr %accrualFactor_, align 8, !tbaa !113
  %div4 = fdiv double %sub2, %2
  %sub = fsub double %U, %0
  %div = fdiv double %sub, %2
  %mul6 = fmul double %lambdaT, %div
  %3 = tail call double @llvm.fmuladd.f64(double %div4, double %lambdaS, double %mul6)
  br label %if.end

if.end:                                           ; preds = %entry, %if.then
  %result.0 = phi double [ %3, %if.then ], [ %lambdaT, %entry ]
  ret double %result.0
}